(dp0
S'null'
p1
S'None'
p2
sS'false'
p3
S'False'
p4
sS'string'
p5
g5
sS'integer'
p6
g6
sS'array'
p7
S'list'
p8
sS'Object'
p9
S'dictionary'
p10
sS'true'
p11
S'True'
p12
sS'realnumber'
p13
S'float'
p14
s.